target datalayout = "e-m:e-p270:32:32-p271:32:32-p272:64:64-i64:64-i128:128-f80:128-n8:16:32:64-S128"
target triple = "x86_64-unknown-linux-gnu"

%"class.icu_75::UObject" = type { ptr }
%"class.icu_75::Locale" = type <{ %"class.icu_75::UObject", [12 x i8], [6 x i8], [4 x i8], [2 x i8], i32, [4 x i8], ptr, [157 x i8], [3 x i8], ptr, i8, [7 x i8] }>
%"class.icu_75::LocalPointer" = type { %"class.icu_75::LocalPointerBase" }
%"class.icu_75::LocalPointerBase" = type { ptr }

@.str.1 = private unnamed_addr constant [9 x i8] c"calendar\00", align 1

; Function Attrs: mustprogress nounwind uwtable
define linkonce_odr void @_ZN6icu_7516LocalPointerBaseINS_8CalendarEED2Ev(ptr noundef nonnull align 8 dereferenceable(8) %this) unnamed_addr #0 comdat align 2 {
entry:
  %this.addr = alloca ptr, align 8
  store ptr %this, ptr %this.addr, align 8
  ret void
}

; Function Attrs: mustprogress nounwind uwtable
define linkonce_odr void @_ZN6icu_7516LocalPointerBaseINS_8CalendarEEC2EPS1_(ptr noundef nonnull align 8 dereferenceable(8) %this, ptr noundef %p) unnamed_addr #0 comdat align 2 {
entry:
  %this.addr = alloca ptr, align 8
  %p.addr = alloca ptr, align 8
  store ptr %this, ptr %this.addr, align 8
  store ptr %p, ptr %p.addr, align 8
  %this1 = load ptr, ptr %this.addr, align 8
  %ptr = getelementptr inbounds %"class.icu_75::LocalPointerBase", ptr %this1, i32 0, i32 0
  %0 = load ptr, ptr %p.addr, align 8
  store ptr %0, ptr %ptr, align 8
  ret void
}

; Function Attrs: mustprogress nounwind uwtable
define linkonce_odr void @_ZN6icu_7512LocalPointerINS_8CalendarEED2Ev(ptr noundef nonnull align 8 dereferenceable(8) %this) unnamed_addr #0 comdat align 2 {
entry:
  %this.addr = alloca ptr, align 8
  store ptr %this, ptr %this.addr, align 8
  %this1 = load ptr, ptr %this.addr, align 8
  %ptr = getelementptr inbounds %"class.icu_75::LocalPointerBase", ptr %this1, i32 0, i32 0
  %0 = load ptr, ptr %ptr, align 8
  %isnull = icmp eq ptr %0, null
  br i1 %isnull, label %delete.end, label %delete.notnull

delete.notnull:                                   ; preds = %entry
  %vtable = load ptr, ptr %0, align 8
  %vfn = getelementptr inbounds ptr, ptr %vtable, i64 1
  %1 = load ptr, ptr %vfn, align 8
  call void %1(ptr noundef nonnull align 8 dereferenceable(618) %0) #7
  br label %delete.end

delete.end:                                       ; preds = %delete.notnull, %entry
  call void @_ZN6icu_7516LocalPointerBaseINS_8CalendarEED2Ev(ptr noundef nonnull align 8 dereferenceable(8) %this1) #7
  ret void
}

; Function Attrs: mustprogress nounwind uwtable
define linkonce_odr noundef ptr @_ZN6icu_7516LocalPointerBaseINS_8CalendarEE6orphanEv(ptr noundef nonnull align 8 dereferenceable(8) %this) #0 comdat align 2 {
entry:
  %this.addr = alloca ptr, align 8
  %p = alloca ptr, align 8
  store ptr %this, ptr %this.addr, align 8
  %this1 = load ptr, ptr %this.addr, align 8
  %ptr = getelementptr inbounds %"class.icu_75::LocalPointerBase", ptr %this1, i32 0, i32 0
  %0 = load ptr, ptr %ptr, align 8
  store ptr %0, ptr %p, align 8
  %ptr2 = getelementptr inbounds %"class.icu_75::LocalPointerBase", ptr %this1, i32 0, i32 0
  store ptr null, ptr %ptr2, align 8
  %1 = load ptr, ptr %p, align 8
  ret ptr %1
}

; Function Attrs: mustprogress nounwind uwtable
define linkonce_odr noundef ptr @_ZNK6icu_7516LocalPointerBaseINS_8CalendarEEptEv(ptr noundef nonnull align 8 dereferenceable(8) %this) #0 comdat align 2 {
entry:
  %this.addr = alloca ptr, align 8
  store ptr %this, ptr %this.addr, align 8
  %this1 = load ptr, ptr %this.addr, align 8
  %ptr = getelementptr inbounds %"class.icu_75::LocalPointerBase", ptr %this1, i32 0, i32 0
  %0 = load ptr, ptr %ptr, align 8
  ret ptr %0
}

; Function Attrs: mustprogress nounwind uwtable
define linkonce_odr noundef signext i8 @_ZNK6icu_7516LocalPointerBaseINS_8CalendarEE6isNullEv(ptr noundef nonnull align 8 dereferenceable(8) %this) #0 comdat align 2 {
entry:
  %this.addr = alloca ptr, align 8
  store ptr %this, ptr %this.addr, align 8
  %this1 = load ptr, ptr %this.addr, align 8
  %ptr = getelementptr inbounds %"class.icu_75::LocalPointerBase", ptr %this1, i32 0, i32 0
  %0 = load ptr, ptr %ptr, align 8
  %cmp = icmp eq ptr %0, null
  %conv = zext i1 %cmp to i8
  ret i8 %conv
}

; Function Attrs: mustprogress nounwind uwtable
define internal noundef signext i8 @_ZL9U_FAILURE10UErrorCode(i32 noundef %code) #0 {
entry:
  %code.addr = alloca i32, align 4
  store i32 %code, ptr %code.addr, align 4
  %0 = load i32, ptr %code.addr, align 4
  %cmp = icmp sgt i32 %0, 0
  %conv = zext i1 %cmp to i8
  ret i8 %conv
}

; Function Attrs: mustprogress uwtable
define linkonce_odr void @_ZN6icu_7512LocalPointerINS_8CalendarEEC2EPS1_(ptr noundef nonnull align 8 dereferenceable(8) %this, ptr noundef %p) unnamed_addr #2 comdat align 2 {
entry:
  %this.addr = alloca ptr, align 8
  %p.addr = alloca ptr, align 8
  store ptr %this, ptr %this.addr, align 8
  store ptr %p, ptr %p.addr, align 8
  %this1 = load ptr, ptr %this.addr, align 8
  %0 = load ptr, ptr %p.addr, align 8
  call void @_ZN6icu_7516LocalPointerBaseINS_8CalendarEEC2EPS1_(ptr noundef nonnull align 8 dereferenceable(8) %this1, ptr noundef %0)
  ret void
}

; Function Attrs: mustprogress uwtable
define noundef ptr @_ZN6icu_7510DateFormat25createInstanceForSkeletonEPNS_8CalendarERKNS_13UnicodeStringERKNS_6LocaleER10UErrorCode(ptr noundef %calendarToAdopt, ptr noundef nonnull align 8 dereferenceable(64) %skeleton, ptr noundef nonnull align 8 dereferenceable(217) %locale, ptr noundef nonnull align 4 dereferenceable(4) %status) #2 align 2 personality ptr @__gxx_personality_v0 {
entry:
  %retval = alloca ptr, align 8
  %calendarToAdopt.addr = alloca ptr, align 8
  %skeleton.addr = alloca ptr, align 8
  %locale.addr = alloca ptr, align 8
  %status.addr = alloca ptr, align 8
  %calendar = alloca %"class.icu_75::LocalPointer", align 8
  %exn.slot = alloca ptr, align 8
  %ehselector.slot = alloca i32, align 4
  %cleanup.dest.slot = alloca i32, align 4
  %localeWithCalendar = alloca %"class.icu_75::Locale", align 8
  %result = alloca ptr, align 8
  store ptr %calendarToAdopt, ptr %calendarToAdopt.addr, align 8
  store ptr %skeleton, ptr %skeleton.addr, align 8
  store ptr %locale, ptr %locale.addr, align 8
  store ptr %status, ptr %status.addr, align 8
  %0 = load ptr, ptr %calendarToAdopt.addr, align 8
  call void @_ZN6icu_7512LocalPointerINS_8CalendarEEC2EPS1_(ptr noundef nonnull align 8 dereferenceable(8) %calendar, ptr noundef %0)
  %1 = load ptr, ptr %status.addr, align 8
  %2 = load i32, ptr %1, align 4
  %call = invoke noundef signext i8 @_ZL9U_FAILURE10UErrorCode(i32 noundef %2)
          to label %invoke.cont unwind label %lpad

invoke.cont:                                      ; preds = %entry
  %tobool = icmp ne i8 %call, 0
  br i1 %tobool, label %if.then, label %if.end

if.then:                                          ; preds = %invoke.cont
  store ptr null, ptr %retval, align 8
  store i32 1, ptr %cleanup.dest.slot, align 4
  br label %cleanup30

lpad:                                             ; preds = %if.end5, %if.end, %entry
  %3 = landingpad { ptr, i32 }
          cleanup
  %4 = extractvalue { ptr, i32 } %3, 0
  store ptr %4, ptr %exn.slot, align 8
  %5 = extractvalue { ptr, i32 } %3, 1
  store i32 %5, ptr %ehselector.slot, align 4
  br label %ehcleanup

if.end:                                           ; preds = %invoke.cont
  %call2 = invoke noundef signext i8 @_ZNK6icu_7516LocalPointerBaseINS_8CalendarEE6isNullEv(ptr noundef nonnull align 8 dereferenceable(8) %calendar)
          to label %invoke.cont1 unwind label %lpad

invoke.cont1:                                     ; preds = %if.end
  %tobool3 = icmp ne i8 %call2, 0
  br i1 %tobool3, label %if.then4, label %if.end5

if.then4:                                         ; preds = %invoke.cont1
  %6 = load ptr, ptr %status.addr, align 8
  store i32 1, ptr %6, align 4
  store ptr null, ptr %retval, align 8
  store i32 1, ptr %cleanup.dest.slot, align 4
  br label %cleanup30

if.end5:                                          ; preds = %invoke.cont1
  %7 = load ptr, ptr %locale.addr, align 8
  invoke void @_ZN6icu_756LocaleC1ERKS0_(ptr noundef nonnull align 8 dereferenceable(217) %localeWithCalendar, ptr noundef nonnull align 8 dereferenceable(217) %7)
          to label %invoke.cont6 unwind label %lpad

invoke.cont6:                                     ; preds = %if.end5
  %call9 = invoke noundef ptr @_ZNK6icu_7516LocalPointerBaseINS_8CalendarEEptEv(ptr noundef nonnull align 8 dereferenceable(8) %calendar)
          to label %invoke.cont8 unwind label %lpad7

invoke.cont8:                                     ; preds = %invoke.cont6
  %vtable = load ptr, ptr %call9, align 8
  %vfn = getelementptr inbounds ptr, ptr %vtable, i64 23
  %8 = load ptr, ptr %vfn, align 8
  %call11 = invoke noundef ptr %8(ptr noundef nonnull align 8 dereferenceable(618) %call9)
          to label %invoke.cont10 unwind label %lpad7

invoke.cont10:                                    ; preds = %invoke.cont8
  %9 = load ptr, ptr %status.addr, align 8
  invoke void @_ZN6icu_756Locale15setKeywordValueEPKcS2_R10UErrorCode(ptr noundef nonnull align 8 dereferenceable(217) %localeWithCalendar, ptr noundef @.str.1, ptr noundef %call11, ptr noundef nonnull align 4 dereferenceable(4) %9)
          to label %invoke.cont12 unwind label %lpad7

invoke.cont12:                                    ; preds = %invoke.cont10
  %10 = load ptr, ptr %status.addr, align 8
  %11 = load i32, ptr %10, align 4
  %call14 = invoke noundef signext i8 @_ZL9U_FAILURE10UErrorCode(i32 noundef %11)
          to label %invoke.cont13 unwind label %lpad7

invoke.cont13:                                    ; preds = %invoke.cont12
  %tobool15 = icmp ne i8 %call14, 0
  br i1 %tobool15, label %if.then16, label %if.end17

if.then16:                                        ; preds = %invoke.cont13
  store ptr null, ptr %retval, align 8
  store i32 1, ptr %cleanup.dest.slot, align 4
  br label %cleanup

lpad7:                                            ; preds = %invoke.cont25, %if.end24, %invoke.cont18, %if.end17, %invoke.cont12, %invoke.cont10, %invoke.cont8, %invoke.cont6
  %12 = landingpad { ptr, i32 }
          cleanup
  %13 = extractvalue { ptr, i32 } %12, 0
  store ptr %13, ptr %exn.slot, align 8
  %14 = extractvalue { ptr, i32 } %12, 1
  store i32 %14, ptr %ehselector.slot, align 4
  call void @_ZN6icu_756LocaleD1Ev(ptr noundef nonnull align 8 dereferenceable(217) %localeWithCalendar) #7
  br label %ehcleanup

if.end17:                                         ; preds = %invoke.cont13
  %15 = load ptr, ptr %skeleton.addr, align 8
  %16 = load ptr, ptr %status.addr, align 8
  %call19 = invoke noundef ptr @_ZN6icu_7510DateFormat25createInstanceForSkeletonERKNS_13UnicodeStringERKNS_6LocaleER10UErrorCode(ptr noundef nonnull align 8 dereferenceable(64) %15, ptr noundef nonnull align 8 dereferenceable(217) %localeWithCalendar, ptr noundef nonnull align 4 dereferenceable(4) %16)
          to label %invoke.cont18 unwind label %lpad7

invoke.cont18:                                    ; preds = %if.end17
  store ptr %call19, ptr %result, align 8
  %17 = load ptr, ptr %status.addr, align 8
  %18 = load i32, ptr %17, align 4
  %call21 = invoke noundef signext i8 @_ZL9U_FAILURE10UErrorCode(i32 noundef %18)
          to label %invoke.cont20 unwind label %lpad7

invoke.cont20:                                    ; preds = %invoke.cont18
  %tobool22 = icmp ne i8 %call21, 0
  br i1 %tobool22, label %if.then23, label %if.end24

if.then23:                                        ; preds = %invoke.cont20
  store ptr null, ptr %retval, align 8
  store i32 1, ptr %cleanup.dest.slot, align 4
  br label %cleanup

if.end24:                                         ; preds = %invoke.cont20
  %19 = load ptr, ptr %result, align 8
  %call26 = invoke noundef ptr @_ZN6icu_7516LocalPointerBaseINS_8CalendarEE6orphanEv(ptr noundef nonnull align 8 dereferenceable(8) %calendar)
          to label %invoke.cont25 unwind label %lpad7

invoke.cont25:                                    ; preds = %if.end24
  %vtable27 = load ptr, ptr %19, align 8
  %vfn28 = getelementptr inbounds ptr, ptr %vtable27, i64 17
  %20 = load ptr, ptr %vfn28, align 8
  invoke void %20(ptr noundef nonnull align 8 dereferenceable(352) %19, ptr noundef %call26)
          to label %invoke.cont29 unwind label %lpad7

invoke.cont29:                                    ; preds = %invoke.cont25
  %21 = load ptr, ptr %result, align 8
  store ptr %21, ptr %retval, align 8
  store i32 1, ptr %cleanup.dest.slot, align 4
  br label %cleanup

cleanup:                                          ; preds = %invoke.cont29, %if.then23, %if.then16
  call void @_ZN6icu_756LocaleD1Ev(ptr noundef nonnull align 8 dereferenceable(217) %localeWithCalendar) #7
  br label %cleanup30

cleanup30:                                        ; preds = %cleanup, %if.then4, %if.then
  call void @_ZN6icu_7512LocalPointerINS_8CalendarEED2Ev(ptr noundef nonnull align 8 dereferenceable(8) %calendar) #7
  %22 = load ptr, ptr %retval, align 8
  ret ptr %22

ehcleanup:                                        ; preds = %lpad7, %lpad
  call void @_ZN6icu_7512LocalPointerINS_8CalendarEED2Ev(ptr noundef nonnull align 8 dereferenceable(8) %calendar) #7
  br label %eh.resume

eh.resume:                                        ; preds = %ehcleanup
  %exn = load ptr, ptr %exn.slot, align 8
  %sel = load i32, ptr %ehselector.slot, align 4
  %lpad.val = insertvalue { ptr, i32 } poison, ptr %exn, 0
  %lpad.val31 = insertvalue { ptr, i32 } %lpad.val, i32 %sel, 1
  resume { ptr, i32 } %lpad.val31
}