; Function Attrs: mustprogress uwtable
define noundef ptr @_ZN6icu_7510DateFormat25createInstanceForSkeletonEPNS_8CalendarERKNS_13UnicodeStringERKNS_6LocaleER10UErrorCode(ptr noundef %calendarToAdopt, ptr noundef nonnull align 8 dereferenceable(64) %skeleton, ptr noundef nonnull align 8 dereferenceable(217) %locale, ptr noundef nonnull align 4 dereferenceable(4) %status) local_unnamed_addr #3 align 2 personality ptr @__gxx_personality_v0 {
entry:
  %localeWithCalendar = alloca %"class.icu_75::Locale", align 8
  %0 = load i32, ptr %status, align 4
  %cmp.i = icmp slt i32 %0, 1
  br i1 %cmp.i, label %if.end, label %cleanup30

ehcleanup.thread:                                 ; preds = %if.end5
  %1 = landingpad { ptr, i32 }
          cleanup
  br label %delete.notnull.i15

if.end:                                           ; preds = %entry
  %cmp.i8.not = icmp eq ptr %calendarToAdopt, null
  br i1 %cmp.i8.not, label %cleanup30.thread, label %if.end5

cleanup30.thread:                                 ; preds = %if.end
  store i32 1, ptr %status, align 4
  br label %_ZN6icu_7512LocalPointerINS_8CalendarEED2Ev.exit

if.end5:                                          ; preds = %if.end
  invoke void @_ZN6icu_756LocaleC1ERKS0_(ptr noundef nonnull align 8 dereferenceable(217) %localeWithCalendar, ptr noundef nonnull align 8 dereferenceable(217) %locale)
          to label %invoke.cont6 unwind label %ehcleanup.thread

invoke.cont6:                                     ; preds = %if.end5
  %vtable = load ptr, ptr %calendarToAdopt, align 8
  %vfn = getelementptr inbounds i8, ptr %vtable, i64 184
  %2 = load ptr, ptr %vfn, align 8
  %call11 = invoke noundef ptr %2(ptr noundef nonnull align 8 dereferenceable(618) %calendarToAdopt)
          to label %invoke.cont10 unwind label %ehcleanup.thread33

invoke.cont10:                                    ; preds = %invoke.cont6
  invoke void @_ZN6icu_756Locale15setKeywordValueEPKcS2_R10UErrorCode(ptr noundef nonnull align 8 dereferenceable(217) %localeWithCalendar, ptr noundef nonnull @.str.1, ptr noundef %call11, ptr noundef nonnull align 4 dereferenceable(4) %status)
          to label %invoke.cont12 unwind label %ehcleanup.thread33

invoke.cont12:                                    ; preds = %invoke.cont10
  %3 = load i32, ptr %status, align 4
  %cmp.i10 = icmp slt i32 %3, 1
  br i1 %cmp.i10, label %if.end17, label %cleanup

if.end17:                                         ; preds = %invoke.cont12
  %call19 = invoke noundef ptr @_ZN6icu_7510DateFormat25createInstanceForSkeletonERKNS_13UnicodeStringERKNS_6LocaleER10UErrorCode(ptr noundef nonnull align 8 dereferenceable(64) %skeleton, ptr noundef nonnull align 8 dereferenceable(217) %localeWithCalendar, ptr noundef nonnull align 4 dereferenceable(4) %status)
          to label %invoke.cont18 unwind label %ehcleanup.thread33

invoke.cont18:                                    ; preds = %if.end17
  %4 = load i32, ptr %status, align 4
  %cmp.i12 = icmp slt i32 %4, 1
  br i1 %cmp.i12, label %if.end24, label %cleanup

if.end24:                                         ; preds = %invoke.cont18
  %vtable27 = load ptr, ptr %call19, align 8
  %vfn28 = getelementptr inbounds i8, ptr %vtable27, i64 136
  %5 = load ptr, ptr %vfn28, align 8
  invoke void %5(ptr noundef nonnull align 8 dereferenceable(352) %call19, ptr noundef nonnull %calendarToAdopt)
          to label %cleanup unwind label %ehcleanup

cleanup:                                          ; preds = %if.end24, %invoke.cont18, %invoke.cont12
  %calendar.sroa.0.1 = phi ptr [ null, %if.end24 ], [ %calendarToAdopt, %invoke.cont18 ], [ %calendarToAdopt, %invoke.cont12 ]
  %retval.0 = phi ptr [ %call19, %if.end24 ], [ null, %invoke.cont18 ], [ null, %invoke.cont12 ]
  call void @_ZN6icu_756LocaleD1Ev(ptr noundef nonnull align 8 dereferenceable(217) %localeWithCalendar) #13
  br label %cleanup30

cleanup30:                                        ; preds = %entry, %cleanup
  %calendar.sroa.0.2 = phi ptr [ %calendar.sroa.0.1, %cleanup ], [ %calendarToAdopt, %entry ]
  %retval.1 = phi ptr [ %retval.0, %cleanup ], [ null, %entry ]
  %isnull.i = icmp eq ptr %calendar.sroa.0.2, null
  br i1 %isnull.i, label %_ZN6icu_7512LocalPointerINS_8CalendarEED2Ev.exit, label %delete.notnull.i

delete.notnull.i:                                 ; preds = %cleanup30
  %vtable.i = load ptr, ptr %calendar.sroa.0.2, align 8
  %vfn.i = getelementptr inbounds i8, ptr %vtable.i, i64 8
  %6 = load ptr, ptr %vfn.i, align 8
  call void %6(ptr noundef nonnull align 8 dereferenceable(618) %calendar.sroa.0.2) #13
  br label %_ZN6icu_7512LocalPointerINS_8CalendarEED2Ev.exit

_ZN6icu_7512LocalPointerINS_8CalendarEED2Ev.exit: ; preds = %cleanup30.thread, %cleanup30, %delete.notnull.i
  %retval.126 = phi ptr [ null, %cleanup30.thread ], [ %retval.1, %cleanup30 ], [ %retval.1, %delete.notnull.i ]
  ret ptr %retval.126

ehcleanup.thread33:                               ; preds = %if.end17, %invoke.cont10, %invoke.cont6
  %lpad.thr_comm = landingpad { ptr, i32 }
          cleanup
  call void @_ZN6icu_756LocaleD1Ev(ptr noundef nonnull align 8 dereferenceable(217) %localeWithCalendar) #13
  br label %delete.notnull.i15

ehcleanup:                                        ; preds = %if.end24
  %lpad.thr_comm.split-lp = landingpad { ptr, i32 }
          cleanup
  call void @_ZN6icu_756LocaleD1Ev(ptr noundef nonnull align 8 dereferenceable(217) %localeWithCalendar) #13
  br label %_ZN6icu_7512LocalPointerINS_8CalendarEED2Ev.exit18

delete.notnull.i15:                               ; preds = %ehcleanup.thread33, %ehcleanup.thread
  %.pn31 = phi { ptr, i32 } [ %1, %ehcleanup.thread ], [ %lpad.thr_comm, %ehcleanup.thread33 ]
  %vtable.i16 = load ptr, ptr %calendarToAdopt, align 8
  %vfn.i17 = getelementptr inbounds i8, ptr %vtable.i16, i64 8
  %7 = load ptr, ptr %vfn.i17, align 8
  call void %7(ptr noundef nonnull align 8 dereferenceable(618) %calendarToAdopt) #13
  br label %_ZN6icu_7512LocalPointerINS_8CalendarEED2Ev.exit18

_ZN6icu_7512LocalPointerINS_8CalendarEED2Ev.exit18: ; preds = %ehcleanup, %delete.notnull.i15
  %.pn32 = phi { ptr, i32 } [ %lpad.thr_comm.split-lp, %ehcleanup ], [ %.pn31, %delete.notnull.i15 ]
  resume { ptr, i32 } %.pn32
}